; Function Attrs: nounwind uwtable
define internal void @hook_free(ptr noundef %0, ptr noundef %1) #0 {
  %3 = getelementptr inbounds nuw i8, ptr %0, i64 88
  store ptr %0, ptr %3, align 8, !tbaa !31
  %4 = getelementptr inbounds nuw i8, ptr %0, i64 80
  store ptr %1, ptr %4, align 8, !tbaa !35
  %5 = getelementptr inbounds nuw i8, ptr %0, i64 32
  %6 = load ptr, ptr %5, align 8, !tbaa !43
  %7 = load ptr, ptr %0, align 8, !tbaa !38
  tail call void %6(ptr noundef %7, ptr noundef %1) #4
  ret void
}